target datalayout = "e-m:e-p270:32:32-p271:32:32-p272:64:64-i64:64-i128:128-f80:128-n8:16:32:64-S128"
target triple = "x86_64-pc-linux-gnu"

%struct.FT_FaceRec_ = type { i64, i64, i64, i64, i64, ptr, ptr, i32, ptr, i32, ptr, %struct.FT_Generic_, %struct.FT_BBox_, i16, i16, i16, i16, i16, i16, i16, i16, ptr, ptr, ptr, ptr, ptr, ptr, %struct.FT_ListRec_, %struct.FT_Generic_, ptr, ptr }
%struct.FT_BBox_ = type { i64, i64, i64, i64 }
%struct.FT_ListRec_ = type { ptr, ptr }
%struct.FT_Generic_ = type { ptr, ptr }
%struct.FT_ModuleRec_ = type { ptr, ptr, ptr }
%struct.FT_Module_Class_ = type { i64, i64, ptr, i64, i64, ptr, ptr, ptr, ptr }
%struct.FT_CMapRec_ = type { %struct.FT_CharMapRec_, ptr }
%struct.FT_CharMapRec_ = type { ptr, i32, i16, i16 }
%struct.FT_CMap_ClassRec_ = type { i64, ptr, ptr, ptr, ptr, ptr, ptr, ptr, ptr, ptr }
%struct.TT_CMapInfo_ = type { i64, i64 }
%struct.FT_Service_TTCMapsRec_ = type { ptr }

@.str.7 = private unnamed_addr constant [9 x i8] c"tt-cmaps\00", align 1

; Function Attrs: nounwind uwtable
define i64 @FT_Get_CMap_Format(ptr noundef %0) #0 {
  %2 = alloca i64, align 8
  %3 = alloca ptr, align 8
  %4 = alloca ptr, align 8
  %5 = alloca ptr, align 8
  %6 = alloca %struct.TT_CMapInfo_, align 8
  %7 = alloca i32, align 4
  %8 = alloca ptr, align 8
  %9 = alloca ptr, align 8
  store ptr %0, ptr %3, align 8, !tbaa !447
  call void @llvm.lifetime.start.p0(i64 8, ptr %4) #10
  call void @llvm.lifetime.start.p0(i64 8, ptr %5) #10
  call void @llvm.lifetime.start.p0(i64 16, ptr %6) #10
  %10 = load ptr, ptr %3, align 8, !tbaa !447
  %11 = icmp ne ptr %10, null
  br i1 %11, label %12, label %17

12:                                               ; preds = %1
  %13 = load ptr, ptr %3, align 8, !tbaa !447
  %14 = getelementptr inbounds nuw %struct.FT_CharMapRec_, ptr %13, i32 0, i32 0
  %15 = load ptr, ptr %14, align 8, !tbaa !455
  %16 = icmp ne ptr %15, null
  br i1 %16, label %18, label %17

17:                                               ; preds = %12, %1
  store i64 -1, ptr %2, align 8
  store i32 1, ptr %7, align 4
  br label %58

18:                                               ; preds = %12
  %19 = load ptr, ptr %3, align 8, !tbaa !447
  %20 = getelementptr inbounds nuw %struct.FT_CharMapRec_, ptr %19, i32 0, i32 0
  %21 = load ptr, ptr %20, align 8, !tbaa !455
  store ptr %21, ptr %5, align 8, !tbaa !3
  br label %22

22:                                               ; preds = %18
  call void @llvm.lifetime.start.p0(i64 8, ptr %8) #10
  %23 = load ptr, ptr %5, align 8, !tbaa !3
  %24 = getelementptr inbounds nuw %struct.FT_FaceRec_, ptr %23, i32 0, i32 24
  %25 = load ptr, ptr %24, align 8, !tbaa !30
  store ptr %25, ptr %8, align 8, !tbaa !75
  call void @llvm.lifetime.start.p0(i64 8, ptr %9) #10
  store ptr null, ptr %9, align 8, !tbaa !41
  %26 = load ptr, ptr %8, align 8, !tbaa !75
  %27 = getelementptr inbounds nuw %struct.FT_ModuleRec_, ptr %26, i32 0, i32 0
  %28 = load ptr, ptr %27, align 8, !tbaa !86
  %29 = getelementptr inbounds nuw %struct.FT_Module_Class_, ptr %28, i32 0, i32 8
  %30 = load ptr, ptr %29, align 8, !tbaa !184
  %31 = icmp ne ptr %30, null
  br i1 %31, label %32, label %40

32:                                               ; preds = %22
  %33 = load ptr, ptr %8, align 8, !tbaa !75
  %34 = getelementptr inbounds nuw %struct.FT_ModuleRec_, ptr %33, i32 0, i32 0
  %35 = load ptr, ptr %34, align 8, !tbaa !86
  %36 = getelementptr inbounds nuw %struct.FT_Module_Class_, ptr %35, i32 0, i32 8
  %37 = load ptr, ptr %36, align 8, !tbaa !184
  %38 = load ptr, ptr %8, align 8, !tbaa !75
  %39 = call ptr %37(ptr noundef %38, ptr noundef @.str.7)
  store ptr %39, ptr %9, align 8, !tbaa !41
  br label %40

40:                                               ; preds = %32, %22
  %41 = load ptr, ptr %9, align 8, !tbaa !41
  store ptr %41, ptr %4, align 8, !tbaa !456
  call void @llvm.lifetime.end.p0(i64 8, ptr %9) #10
  call void @llvm.lifetime.end.p0(i64 8, ptr %8) #10
  br label %42

42:                                               ; preds = %40
  br label %43

43:                                               ; preds = %42
  %44 = load ptr, ptr %4, align 8, !tbaa !456
  %45 = icmp ne ptr %44, null
  br i1 %45, label %47, label %46

46:                                               ; preds = %43
  store i64 -1, ptr %2, align 8
  store i32 1, ptr %7, align 4
  br label %58

47:                                               ; preds = %43
  %48 = load ptr, ptr %4, align 8, !tbaa !456
  %49 = getelementptr inbounds nuw %struct.FT_Service_TTCMapsRec_, ptr %48, i32 0, i32 0
  %50 = load ptr, ptr %49, align 8, !tbaa !458
  %51 = load ptr, ptr %3, align 8, !tbaa !447
  %52 = call i32 %50(ptr noundef %51, ptr noundef %6)
  %53 = icmp ne i32 %52, 0
  br i1 %53, label %54, label %55

54:                                               ; preds = %47
  store i64 -1, ptr %2, align 8
  store i32 1, ptr %7, align 4
  br label %58

55:                                               ; preds = %47
  %56 = getelementptr inbounds nuw %struct.TT_CMapInfo_, ptr %6, i32 0, i32 1
  %57 = load i64, ptr %56, align 8, !tbaa !460
  store i64 %57, ptr %2, align 8
  store i32 1, ptr %7, align 4
  br label %58

58:                                               ; preds = %55, %54, %46, %17
  call void @llvm.lifetime.end.p0(i64 16, ptr %6) #10
  call void @llvm.lifetime.end.p0(i64 8, ptr %5) #10
  call void @llvm.lifetime.end.p0(i64 8, ptr %4) #10
  %59 = load i64, ptr %2, align 8
  ret i64 %59
}

; Function Attrs: nounwind uwtable
define internal ptr @find_variant_selector_charmap(ptr noundef %0) #0 {
  %2 = alloca ptr, align 8
  %3 = alloca ptr, align 8
  %4 = alloca ptr, align 8
  %5 = alloca ptr, align 8
  %6 = alloca ptr, align 8
  %7 = alloca i32, align 4
  store ptr %0, ptr %3, align 8, !tbaa !3
  call void @llvm.lifetime.start.p0(i64 8, ptr %4) #10
  call void @llvm.lifetime.start.p0(i64 8, ptr %5) #10
  call void @llvm.lifetime.start.p0(i64 8, ptr %6) #10
  br label %8

8:                                                ; preds = %1
  br label %9

9:                                                ; preds = %8
  br label %10

10:                                               ; preds = %9
  %11 = load ptr, ptr %3, align 8, !tbaa !3
  %12 = getelementptr inbounds nuw %struct.FT_FaceRec_, ptr %11, i32 0, i32 10
  %13 = load ptr, ptr %12, align 8, !tbaa !445
  store ptr %13, ptr %4, align 8, !tbaa !446
  %14 = load ptr, ptr %4, align 8, !tbaa !446
  %15 = icmp ne ptr %14, null
  br i1 %15, label %17, label %16

16:                                               ; preds = %10
  store ptr null, ptr %2, align 8
  store i32 1, ptr %7, align 4
  br label %60

17:                                               ; preds = %10
  %18 = load ptr, ptr %4, align 8, !tbaa !446
  %19 = load ptr, ptr %3, align 8, !tbaa !3
  %20 = getelementptr inbounds nuw %struct.FT_FaceRec_, ptr %19, i32 0, i32 9
  %21 = load i32, ptr %20, align 8, !tbaa !444
  %22 = sext i32 %21 to i64
  %23 = getelementptr inbounds ptr, ptr %18, i64 %22
  store ptr %23, ptr %5, align 8, !tbaa !446
  %24 = load ptr, ptr %4, align 8, !tbaa !446
  store ptr %24, ptr %6, align 8, !tbaa !446
  br label %25

25:                                               ; preds = %56, %17
  %26 = load ptr, ptr %6, align 8, !tbaa !446
  %27 = load ptr, ptr %5, align 8, !tbaa !446
  %28 = icmp ult ptr %26, %27
  br i1 %28, label %29, label %59

29:                                               ; preds = %25
  %30 = load ptr, ptr %6, align 8, !tbaa !446
  %31 = getelementptr inbounds ptr, ptr %30, i64 0
  %32 = load ptr, ptr %31, align 8, !tbaa !447
  %33 = getelementptr inbounds nuw %struct.FT_CharMapRec_, ptr %32, i32 0, i32 2
  %34 = load i16, ptr %33, align 4, !tbaa !450
  %35 = zext i16 %34 to i32
  %36 = icmp eq i32 %35, 0
  br i1 %36, label %37, label %55

37:                                               ; preds = %29
  %38 = load ptr, ptr %6, align 8, !tbaa !446
  %39 = getelementptr inbounds ptr, ptr %38, i64 0
  %40 = load ptr, ptr %39, align 8, !tbaa !447
  %41 = getelementptr inbounds nuw %struct.FT_CharMapRec_, ptr %40, i32 0, i32 3
  %42 = load i16, ptr %41, align 2, !tbaa !451
  %43 = zext i16 %42 to i32
  %44 = icmp eq i32 %43, 5
  br i1 %44, label %45, label %55

45:                                               ; preds = %37
  %46 = load ptr, ptr %6, align 8, !tbaa !446
  %47 = getelementptr inbounds ptr, ptr %46, i64 0
  %48 = load ptr, ptr %47, align 8, !tbaa !447
  %49 = call i64 @FT_Get_CMap_Format(ptr noundef %48)
  %50 = icmp eq i64 %49, 14
  br i1 %50, label %51, label %55

51:                                               ; preds = %45
  %52 = load ptr, ptr %6, align 8, !tbaa !446
  %53 = getelementptr inbounds ptr, ptr %52, i64 0
  %54 = load ptr, ptr %53, align 8, !tbaa !447
  store ptr %54, ptr %2, align 8
  store i32 1, ptr %7, align 4
  br label %60

55:                                               ; preds = %45, %37, %29
  br label %56

56:                                               ; preds = %55
  %57 = load ptr, ptr %6, align 8, !tbaa !446
  %58 = getelementptr inbounds nuw ptr, ptr %57, i32 1
  store ptr %58, ptr %6, align 8, !tbaa !446
  br label %25, !llvm.loop !482

59:                                               ; preds = %25
  store ptr null, ptr %2, align 8
  store i32 1, ptr %7, align 4
  br label %60

60:                                               ; preds = %59, %51, %16
  call void @llvm.lifetime.end.p0(i64 8, ptr %6) #10
  call void @llvm.lifetime.end.p0(i64 8, ptr %5) #10
  call void @llvm.lifetime.end.p0(i64 8, ptr %4) #10
  %61 = load ptr, ptr %2, align 8
  ret ptr %61
}

; Function Attrs: nounwind uwtable
define ptr @FT_Face_GetCharsOfVariant(ptr noundef %0, i64 noundef %1) #0 {
  %3 = alloca ptr, align 8
  %4 = alloca i64, align 8
  %5 = alloca ptr, align 8
  %6 = alloca ptr, align 8
  %7 = alloca ptr, align 8
  %8 = alloca ptr, align 8
  store ptr %0, ptr %3, align 8, !tbaa !3
  store i64 %1, ptr %4, align 8, !tbaa !47
  call void @llvm.lifetime.start.p0(i64 8, ptr %5) #10
  store ptr null, ptr %5, align 8, !tbaa !164
  %9 = load ptr, ptr %3, align 8, !tbaa !3
  %10 = icmp ne ptr %9, null
  br i1 %10, label %11, label %42

11:                                               ; preds = %2
  call void @llvm.lifetime.start.p0(i64 8, ptr %6) #10
  %12 = load ptr, ptr %3, align 8, !tbaa !3
  %13 = call ptr @find_variant_selector_charmap(ptr noundef %12)
  store ptr %13, ptr %6, align 8, !tbaa !447
  %14 = load ptr, ptr %6, align 8, !tbaa !447
  %15 = icmp ne ptr %14, null
  br i1 %15, label %16, label %41

16:                                               ; preds = %11
  call void @llvm.lifetime.start.p0(i64 8, ptr %7) #10
  %17 = load ptr, ptr %6, align 8, !tbaa !447
  store ptr %17, ptr %7, align 8, !tbaa !354
  call void @llvm.lifetime.start.p0(i64 8, ptr %8) #10
  %18 = load ptr, ptr %3, align 8, !tbaa !3
  %19 = getelementptr inbounds nuw %struct.FT_FaceRec_, ptr %18, i32 0, i32 25
  %20 = load ptr, ptr %19, align 8, !tbaa !287
  store ptr %20, ptr %8, align 8, !tbaa !185
  %21 = load i64, ptr %4, align 8, !tbaa !47
  %22 = icmp ugt i64 %21, 4294967295
  br i1 %22, label %23, label %30

23:                                               ; preds = %16
  br label %24

24:                                               ; preds = %23
  br label %25

25:                                               ; preds = %24
  br label %26

26:                                               ; preds = %25
  br label %27

27:                                               ; preds = %26
  br label %28

28:                                               ; preds = %27
  br label %29

29:                                               ; preds = %28
  br label %30

30:                                               ; preds = %29, %16
  %31 = load ptr, ptr %7, align 8, !tbaa !354
  %32 = getelementptr inbounds nuw %struct.FT_CMapRec_, ptr %31, i32 0, i32 1
  %33 = load ptr, ptr %32, align 8, !tbaa !356
  %34 = getelementptr inbounds nuw %struct.FT_CMap_ClassRec_, ptr %33, i32 0, i32 9
  %35 = load ptr, ptr %34, align 8, !tbaa !486
  %36 = load ptr, ptr %7, align 8, !tbaa !354
  %37 = load ptr, ptr %8, align 8, !tbaa !185
  %38 = load i64, ptr %4, align 8, !tbaa !47
  %39 = trunc i64 %38 to i32
  %40 = call ptr %35(ptr noundef %36, ptr noundef %37, i32 noundef %39)
  store ptr %40, ptr %5, align 8, !tbaa !164
  call void @llvm.lifetime.end.p0(i64 8, ptr %8) #10
  call void @llvm.lifetime.end.p0(i64 8, ptr %7) #10
  br label %41

41:                                               ; preds = %30, %11
  call void @llvm.lifetime.end.p0(i64 8, ptr %6) #10
  br label %42

42:                                               ; preds = %41, %2
  %43 = load ptr, ptr %5, align 8, !tbaa !164
  call void @llvm.lifetime.end.p0(i64 8, ptr %5) #10
  ret ptr %43
}