; Function Attrs: nounwind uwtable
define ptr @FT_Face_GetCharsOfVariant(ptr noundef readonly %0, i64 noundef %1) local_unnamed_addr #0 {
  %3 = alloca %struct.TT_CMapInfo_, align 8
  %.not = icmp eq ptr %0, null
  br i1 %.not, label %find_variant_selector_charmap.exit.thread, label %4

4:                                                ; preds = %2
  %5 = getelementptr inbounds nuw i8, ptr %0, i64 80
  %6 = load ptr, ptr %5, align 8, !tbaa !337
  %.not.i = icmp eq ptr %6, null
  br i1 %.not.i, label %find_variant_selector_charmap.exit.thread, label %7

7:                                                ; preds = %4
  %8 = getelementptr inbounds nuw i8, ptr %0, i64 72
  %9 = load i32, ptr %8, align 8, !tbaa !336
  %10 = sext i32 %9 to i64
  %11 = getelementptr inbounds ptr, ptr %6, i64 %10
  %12 = icmp sgt i32 %9, 0
  br i1 %12, label %.lr.ph.i, label %find_variant_selector_charmap.exit.thread

.lr.ph.i:                                         ; preds = %7
  %13 = getelementptr inbounds nuw i8, ptr %3, i64 8
  br label %14

14:                                               ; preds = %38, %.lr.ph.i
  %.017.i = phi ptr [ %6, %.lr.ph.i ], [ %39, %38 ]
  %15 = load ptr, ptr %.017.i, align 8, !tbaa !338
  %16 = getelementptr inbounds nuw i8, ptr %15, i64 12
  %17 = load i16, ptr %16, align 4, !tbaa !380
  %18 = icmp eq i16 %17, 0
  br i1 %18, label %19, label %38

19:                                               ; preds = %14
  %20 = getelementptr inbounds nuw i8, ptr %15, i64 14
  %21 = load i16, ptr %20, align 2, !tbaa !381
  %22 = icmp eq i16 %21, 5
  br i1 %22, label %23, label %38

23:                                               ; preds = %19
  call void @llvm.lifetime.start.p0(i64 16, ptr nonnull %3) #34
  %24 = load ptr, ptr %15, align 8, !tbaa !385
  %.not15.i.i = icmp eq ptr %24, null
  br i1 %.not15.i.i, label %FT_Get_CMap_Format.exit.thread.i, label %25

25:                                               ; preds = %23
  %26 = getelementptr inbounds nuw i8, ptr %24, i64 176
  %27 = load ptr, ptr %26, align 8, !tbaa !25
  %28 = load ptr, ptr %27, align 8, !tbaa !88
  %29 = getelementptr inbounds nuw i8, ptr %28, i64 64
  %30 = load ptr, ptr %29, align 8, !tbaa !90
  %.not16.i.i = icmp eq ptr %30, null
  br i1 %.not16.i.i, label %FT_Get_CMap_Format.exit.thread.i, label %31

31:                                               ; preds = %25
  %32 = call ptr %30(ptr noundef nonnull %27, ptr noundef nonnull @.str.7) #34
  %.not17.i.i = icmp eq ptr %32, null
  br i1 %.not17.i.i, label %FT_Get_CMap_Format.exit.thread.i, label %33

33:                                               ; preds = %31
  %34 = load ptr, ptr %32, align 8, !tbaa !386
  %35 = call i32 %34(ptr noundef nonnull %15, ptr noundef nonnull %3) #34
  %.not18.i.i = icmp eq i32 %35, 0
  br i1 %.not18.i.i, label %FT_Get_CMap_Format.exit.i, label %FT_Get_CMap_Format.exit.thread.i

FT_Get_CMap_Format.exit.thread.i:                 ; preds = %33, %31, %25, %23
  call void @llvm.lifetime.end.p0(i64 16, ptr nonnull %3) #34
  br label %38

FT_Get_CMap_Format.exit.i:                        ; preds = %33
  %36 = load i64, ptr %13, align 8, !tbaa !388
  call void @llvm.lifetime.end.p0(i64 16, ptr nonnull %3) #34
  %37 = icmp eq i64 %36, 14
  br i1 %37, label %find_variant_selector_charmap.exit, label %38

38:                                               ; preds = %FT_Get_CMap_Format.exit.i, %FT_Get_CMap_Format.exit.thread.i, %19, %14
  %39 = getelementptr inbounds nuw i8, ptr %.017.i, i64 8
  %40 = icmp ult ptr %39, %11
  br i1 %40, label %14, label %find_variant_selector_charmap.exit.thread, !llvm.loop !406

find_variant_selector_charmap.exit:               ; preds = %FT_Get_CMap_Format.exit.i
  %41 = load ptr, ptr %.017.i, align 8, !tbaa !338
  %.not12 = icmp eq ptr %41, null
  br i1 %.not12, label %find_variant_selector_charmap.exit.thread, label %42

42:                                               ; preds = %find_variant_selector_charmap.exit
  %43 = getelementptr inbounds nuw i8, ptr %0, i64 184
  %44 = load ptr, ptr %43, align 8, !tbaa !60
  %45 = getelementptr inbounds nuw i8, ptr %41, i64 16
  %46 = load ptr, ptr %45, align 8, !tbaa !292
  %47 = getelementptr inbounds nuw i8, ptr %46, i64 72
  %48 = load ptr, ptr %47, align 8, !tbaa !411
  %49 = trunc i64 %1 to i32
  %50 = call ptr %48(ptr noundef nonnull %41, ptr noundef %44, i32 noundef %49) #34
  br label %find_variant_selector_charmap.exit.thread

find_variant_selector_charmap.exit.thread:        ; preds = %38, %7, %4, %find_variant_selector_charmap.exit, %42, %2
  %.0 = phi ptr [ null, %2 ], [ %50, %42 ], [ null, %find_variant_selector_charmap.exit ], [ null, %4 ], [ null, %7 ], [ null, %38 ]
  ret ptr %.0
}